target datalayout = "e-m:e-p270:32:32-p271:32:32-p272:64:64-i64:64-i128:128-f80:128-n8:16:32:64-S128"
target triple = "x86_64-pc-linux-gnu"

%struct.slurm_conf_t = type { i64, ptr, i16, ptr, ptr, ptr, ptr, ptr, i16, ptr, ptr, ptr, ptr, ptr, ptr, ptr, i16, ptr, ptr, ptr, ptr, i16, ptr, ptr, ptr, i64, ptr, ptr, ptr, ptr, i16, ptr, ptr, i16, i32, ptr, i32, ptr, i32, i32, ptr, ptr, i64, i64, ptr, i16, i16, ptr, i32, i32, ptr, i32, ptr, i32, i16, i16, i16, ptr, i16, i16, ptr, ptr, i32, i16, i16, ptr, i32, i16, ptr, ptr, ptr, ptr, i16, ptr, ptr, ptr, ptr, i32, ptr, ptr, ptr, ptr, i16, i16, ptr, i32, i32, i32, i16, i16, ptr, ptr, i16, ptr, ptr, i32, i32, i32, i32, i32, i64, i32, i32, i16, ptr, ptr, i32, ptr, ptr, ptr, i16, i32, ptr, ptr, i16, ptr, ptr, i32, i16, ptr, ptr, ptr, ptr, i32, i32, i16, i16, i32, ptr, i16, ptr, i32, i32, i32, i32, i32, i32, ptr, i16, ptr, ptr, i32, i16, ptr, i32, i16, i16, ptr, ptr, ptr, i16, ptr, ptr, ptr, ptr, i16, i16, ptr, i16, ptr, i16, ptr, i16, ptr, i16, ptr, ptr, ptr, ptr, i16, ptr, ptr, ptr, i32, ptr, i32, ptr, ptr, i16, ptr, ptr, i32, i16, ptr, ptr, i16, i16, ptr, i16, ptr, ptr, ptr, i32, ptr, i16, i16, ptr, ptr, ptr, ptr, ptr, ptr, ptr, ptr, i16, i32, i16, ptr, ptr, ptr, ptr, i32, ptr, ptr, ptr, i16, ptr, ptr, ptr, i16, ptr, i16, ptr, i16, i16, ptr }
%struct.timespec = type { i64, i64 }
%struct.slurm_msg = type { %struct.sockaddr_storage, ptr, i32, i32, i32, i8, i32, i8, i32, ptr, ptr, i32, ptr, ptr, i16, i8, i16, i16, %struct.forward, ptr, %struct.sockaddr_storage, ptr }
%struct.forward = type { %struct.slurm_node_alias_addrs_t, i16, i16, ptr, i32, i16, i16 }
%struct.slurm_node_alias_addrs_t = type { i64, ptr, ptr, i32, ptr }
%struct.sockaddr_storage = type { i16, [118 x i8], i64 }
%struct.service_connection_args_t = type { i32, %struct.timespec, %struct.sockaddr_storage, i32 }

@.str.3 = private unnamed_addr constant [9 x i8] c"slurmd.c\00", align 1
@slurm_conf = external global %struct.slurm_conf_t, align 8
@.str.156 = private unnamed_addr constant [40 x i8] c"%s: [%pA] processing new RPC connection\00", align 1
@__func__._service_connection = private unnamed_addr constant [20 x i8] c"_service_connection\00", align 1
@.str.157 = private unnamed_addr constant [42 x i8] c"service_connection: slurm_receive_msg: %m\00", align 1
@.str.158 = private unnamed_addr constant [23 x i8] c"%s: incomplete message\00", align 1
@.str.159 = private unnamed_addr constant [25 x i8] c"Start processing RPC: %s\00", align 1
@.str.160 = private unnamed_addr constant [56 x i8] c"AUDIT_RPCS: msg_type=%s uid=%u client=[%pA] protocol=%u\00", align 1
@.str.161 = private unnamed_addr constant [14 x i8] c"close(%d): %m\00", align 1
@.str.162 = private unnamed_addr constant [26 x i8] c"Finish processing RPC: %s\00", align 1

; Function Attrs: nounwind uwtable
define internal ptr @_service_connection(ptr noundef %0) #0 {
  %2 = alloca ptr, align 8
  %3 = alloca ptr, align 8
  %4 = alloca ptr, align 8
  %5 = alloca ptr, align 8
  %6 = alloca i32, align 4
  %7 = alloca i32, align 4
  store ptr %0, ptr %2, align 8
  call void @llvm.lifetime.start.p0(i64 8, ptr %3) #11
  %8 = load ptr, ptr %2, align 8
  store ptr %8, ptr %3, align 8
  call void @llvm.lifetime.start.p0(i64 8, ptr %4) #11
  store ptr null, ptr %4, align 8
  call void @llvm.lifetime.start.p0(i64 8, ptr %5) #11
  %9 = load ptr, ptr %3, align 8
  %10 = getelementptr inbounds nuw %struct.service_connection_args_t, ptr %9, i32 0, i32 2
  store ptr %10, ptr %5, align 8
  call void @llvm.lifetime.start.p0(i64 4, ptr %6) #11
  %11 = load ptr, ptr %3, align 8
  %12 = getelementptr inbounds nuw %struct.service_connection_args_t, ptr %11, i32 0, i32 3
  %13 = load i32, ptr %12, align 8
  store i32 %13, ptr %6, align 4
  call void @llvm.lifetime.start.p0(i64 4, ptr %7) #11
  store i32 0, ptr %7, align 4
  br label %14

14:                                               ; preds = %1
  br label %15

15:                                               ; preds = %14
  %16 = call i32 @get_log_level()
  %17 = icmp sge i32 %16, 7
  br i1 %17, label %18, label %19

18:                                               ; preds = %15
  call void (i32, ptr, ...) @log_var(i32 noundef 7, ptr noundef @.str.156, ptr noundef @__func__._service_connection, ptr noundef %5)
  br label %19

19:                                               ; preds = %18, %15
  br label %20

20:                                               ; preds = %19
  br label %21

21:                                               ; preds = %20
  br label %22

22:                                               ; preds = %21
  br label %23

23:                                               ; preds = %22
  %24 = call ptr @slurm_xcalloc(i64 noundef 1, i64 noundef 424, i1 noundef zeroext false, i1 noundef zeroext false, ptr noundef @.str.3, i32 noundef 732, ptr noundef @__func__._service_connection)
  store ptr %24, ptr %4, align 8
  %25 = load ptr, ptr %4, align 8
  call void @slurm_msg_t_init(ptr noundef %25)
  %26 = load ptr, ptr %4, align 8
  %27 = getelementptr inbounds nuw %struct.slurm_msg, ptr %26, i32 0, i32 14
  %28 = load i16, ptr %27, align 8
  %29 = zext i16 %28 to i64
  %30 = or i64 %29, 4
  %31 = trunc i64 %30 to i16
  store i16 %31, ptr %27, align 8
  %32 = load i32, ptr %6, align 4
  %33 = load ptr, ptr %5, align 8
  %34 = load ptr, ptr %4, align 8
  %35 = call i32 @slurm_receive_msg_and_forward(i32 noundef %32, ptr noundef %33, ptr noundef %34)
  store i32 %35, ptr %7, align 4
  %36 = icmp ne i32 %35, 0
  br i1 %36, label %37, label %60

37:                                               ; preds = %23
  %38 = call i32 (ptr, ...) @error(ptr noundef @.str.157)
  %39 = load ptr, ptr %4, align 8
  %40 = getelementptr inbounds nuw %struct.slurm_msg, ptr %39, i32 0, i32 5
  %41 = load i8, ptr %40, align 4, !range !8, !noundef !9
  %42 = trunc i8 %41 to i1
  br i1 %42, label %43, label %47

43:                                               ; preds = %37
  %44 = load ptr, ptr %4, align 8
  %45 = load i32, ptr %7, align 4
  %46 = call i32 @slurm_send_rc_msg(ptr noundef %44, i32 noundef %45)
  br label %59

47:                                               ; preds = %37
  br label %48

48:                                               ; preds = %47
  br label %49

49:                                               ; preds = %48
  %50 = call i32 @get_log_level()
  %51 = icmp sge i32 %50, 5
  br i1 %51, label %52, label %53

52:                                               ; preds = %49
  call void (i32, ptr, ...) @log_var(i32 noundef 5, ptr noundef @.str.158, ptr noundef @__func__._service_connection)
  br label %53

53:                                               ; preds = %52, %49
  br label %54

54:                                               ; preds = %53
  br label %55

55:                                               ; preds = %54
  br label %56

56:                                               ; preds = %55
  br label %57

57:                                               ; preds = %56
  %58 = load ptr, ptr %4, align 8
  call void @forward_wait(ptr noundef %58)
  br label %59

59:                                               ; preds = %57, %43
  br label %107

60:                                               ; preds = %23
  br label %61

61:                                               ; preds = %60
  br label %62

62:                                               ; preds = %61
  %63 = call i32 @get_log_level()
  %64 = icmp sge i32 %63, 6
  br i1 %64, label %65, label %70

65:                                               ; preds = %62
  %66 = load ptr, ptr %4, align 8
  %67 = getelementptr inbounds nuw %struct.slurm_msg, ptr %66, i32 0, i32 16
  %68 = load i16, ptr %67, align 4
  %69 = call ptr @rpc_num2string(i16 noundef zeroext %68)
  call void (i32, ptr, ...) @log_var(i32 noundef 6, ptr noundef @.str.159, ptr noundef %69)
  br label %70

70:                                               ; preds = %65, %62
  br label %71

71:                                               ; preds = %70
  br label %72

72:                                               ; preds = %71
  br label %73

73:                                               ; preds = %72
  br label %74

74:                                               ; preds = %73
  %75 = load i64, ptr getelementptr inbounds nuw (%struct.slurm_conf_t, ptr @slurm_conf, i32 0, i32 42), align 8
  %76 = and i64 %75, 33554432
  %77 = icmp ne i64 %76, 0
  br i1 %77, label %78, label %105

78:                                               ; preds = %74
  br label %79

79:                                               ; preds = %78
  %80 = load i64, ptr getelementptr inbounds nuw (%struct.slurm_conf_t, ptr @slurm_conf, i32 0, i32 42), align 8
  %81 = and i64 %80, 33554432
  %82 = icmp ne i64 %81, 0
  br i1 %82, label %83, label %102

83:                                               ; preds = %79
  br label %84

84:                                               ; preds = %83
  %85 = call i32 @get_log_level()
  %86 = icmp sge i32 %85, 4
  br i1 %86, label %87, label %99

87:                                               ; preds = %84
  %88 = load ptr, ptr %4, align 8
  %89 = getelementptr inbounds nuw %struct.slurm_msg, ptr %88, i32 0, i32 16
  %90 = load i16, ptr %89, align 4
  %91 = call ptr @rpc_num2string(i16 noundef zeroext %90)
  %92 = load ptr, ptr %4, align 8
  %93 = getelementptr inbounds nuw %struct.slurm_msg, ptr %92, i32 0, i32 3
  %94 = load i32, ptr %93, align 4
  %95 = load ptr, ptr %4, align 8
  %96 = getelementptr inbounds nuw %struct.slurm_msg, ptr %95, i32 0, i32 17
  %97 = load i16, ptr %96, align 2
  %98 = zext i16 %97 to i32
  call void (i32, ptr, ...) @log_var(i32 noundef 4, ptr noundef @.str.160, ptr noundef %91, i32 noundef %94, ptr noundef %5, i32 noundef %98)
  br label %99

99:                                               ; preds = %87, %84
  br label %100

100:                                              ; preds = %99
  br label %101

101:                                              ; preds = %100
  br label %102

102:                                              ; preds = %101, %79
  br label %103

103:                                              ; preds = %102
  br label %104

104:                                              ; preds = %103
  br label %105

105:                                              ; preds = %104, %74
  %106 = load ptr, ptr %4, align 8
  call void @slurmd_req(ptr noundef %106)
  br label %107

107:                                              ; preds = %105, %59
  %108 = load ptr, ptr %4, align 8
  %109 = getelementptr inbounds nuw %struct.slurm_msg, ptr %108, i32 0, i32 11
  %110 = load i32, ptr %109, align 8
  %111 = icmp sge i32 %110, 0
  br i1 %111, label %112, label %121

112:                                              ; preds = %107
  %113 = load ptr, ptr %4, align 8
  %114 = getelementptr inbounds nuw %struct.slurm_msg, ptr %113, i32 0, i32 11
  %115 = load i32, ptr %114, align 8
  %116 = call i32 @close(i32 noundef %115)
  %117 = icmp slt i32 %116, 0
  br i1 %117, label %118, label %121

118:                                              ; preds = %112
  %119 = load i32, ptr %6, align 4
  %120 = call i32 (ptr, ...) @error(ptr noundef @.str.161, i32 noundef %119)
  br label %121

121:                                              ; preds = %118, %112, %107
  br label %122

122:                                              ; preds = %121
  br label %123

123:                                              ; preds = %122
  %124 = call i32 @get_log_level()
  %125 = icmp sge i32 %124, 6
  br i1 %125, label %126, label %131

126:                                              ; preds = %123
  %127 = load ptr, ptr %4, align 8
  %128 = getelementptr inbounds nuw %struct.slurm_msg, ptr %127, i32 0, i32 16
  %129 = load i16, ptr %128, align 4
  %130 = call ptr @rpc_num2string(i16 noundef zeroext %129)
  call void (i32, ptr, ...) @log_var(i32 noundef 6, ptr noundef @.str.162, ptr noundef %130)
  br label %131

131:                                              ; preds = %126, %123
  br label %132

132:                                              ; preds = %131
  br label %133

133:                                              ; preds = %132
  br label %134

134:                                              ; preds = %133
  br label %135

135:                                              ; preds = %134
  %136 = load ptr, ptr %4, align 8
  call void @slurm_free_msg(ptr noundef %136)
  %137 = load ptr, ptr %3, align 8
  %138 = getelementptr inbounds nuw %struct.service_connection_args_t, ptr %137, i32 0, i32 0
  store i32 -720021680, ptr %138, align 8
  call void @slurm_xfree(ptr noundef %3)
  call void @_decrement_thd_count()
  call void @llvm.lifetime.end.p0(i64 4, ptr %7) #11
  call void @llvm.lifetime.end.p0(i64 4, ptr %6) #11
  call void @llvm.lifetime.end.p0(i64 8, ptr %5) #11
  call void @llvm.lifetime.end.p0(i64 8, ptr %4) #11
  call void @llvm.lifetime.end.p0(i64 8, ptr %3) #11
  ret ptr null
}