; Function Attrs: nounwind uwtable
define internal noalias noundef ptr @_service_connection(ptr noundef %0) #0 {
  %2 = alloca ptr, align 8
  %3 = alloca ptr, align 8
  call void @llvm.lifetime.start.p0(i64 8, ptr nonnull %2) #18
  store ptr %0, ptr %2, align 8
  call void @llvm.lifetime.start.p0(i64 8, ptr nonnull %3) #18
  %4 = getelementptr inbounds nuw i8, ptr %0, i64 24
  store ptr %4, ptr %3, align 8
  %5 = getelementptr inbounds nuw i8, ptr %0, i64 152
  %6 = load i32, ptr %5, align 8
  %7 = tail call i32 @get_log_level() #18
  %8 = icmp sgt i32 %7, 6
  br i1 %8, label %9, label %10

9:                                                ; preds = %1
  call void (i32, ptr, ...) @log_var(i32 noundef 7, ptr noundef nonnull @.str.156, ptr noundef nonnull @__func__._service_connection, ptr noundef nonnull %3) #18
  br label %10

10:                                               ; preds = %9, %1
  %11 = call ptr @slurm_xcalloc(i64 noundef 1, i64 noundef 424, i1 noundef zeroext false, i1 noundef zeroext false, ptr noundef nonnull @.str.3, i32 noundef 732, ptr noundef nonnull @__func__._service_connection) #18
  call void @slurm_msg_t_init(ptr noundef %11) #18
  %12 = getelementptr inbounds nuw i8, ptr %11, i64 208
  %13 = load i16, ptr %12, align 8
  %14 = or i16 %13, 4
  store i16 %14, ptr %12, align 8
  %15 = load ptr, ptr %3, align 8
  %16 = call i32 @slurm_receive_msg_and_forward(i32 noundef %6, ptr noundef %15, ptr noundef %11) #18
  %.not = icmp eq i32 %16, 0
  br i1 %.not, label %29, label %17

17:                                               ; preds = %10
  %18 = call i32 (ptr, ...) @error(ptr noundef nonnull @.str.157) #18
  %19 = getelementptr inbounds nuw i8, ptr %11, i64 148
  %20 = load i8, ptr %19, align 4, !range !11, !noundef !12
  %21 = trunc nuw i8 %20 to i1
  br i1 %21, label %22, label %24

22:                                               ; preds = %17
  %23 = call i32 @slurm_send_rc_msg(ptr noundef nonnull %11, i32 noundef %16) #18
  br label %52

24:                                               ; preds = %17
  %25 = call i32 @get_log_level() #18
  %26 = icmp sgt i32 %25, 4
  br i1 %26, label %27, label %28

27:                                               ; preds = %24
  call void (i32, ptr, ...) @log_var(i32 noundef 5, ptr noundef nonnull @.str.158, ptr noundef nonnull @__func__._service_connection) #18
  br label %28

28:                                               ; preds = %27, %24
  call void @forward_wait(ptr noundef nonnull %11) #18
  br label %52

29:                                               ; preds = %10
  %30 = call i32 @get_log_level() #18
  %31 = icmp sgt i32 %30, 5
  br i1 %31, label %32, label %36

32:                                               ; preds = %29
  %33 = getelementptr inbounds nuw i8, ptr %11, i64 212
  %34 = load i16, ptr %33, align 4
  %35 = call ptr @rpc_num2string(i16 noundef zeroext %34) #18
  call void (i32, ptr, ...) @log_var(i32 noundef 6, ptr noundef nonnull @.str.159, ptr noundef %35) #18
  br label %36

36:                                               ; preds = %32, %29
  %37 = load i64, ptr getelementptr inbounds nuw (i8, ptr @slurm_conf, i64 320), align 8
  %38 = and i64 %37, 33554432
  %.not19 = icmp eq i64 %38, 0
  br i1 %.not19, label %51, label %39

39:                                               ; preds = %36
  %40 = call i32 @get_log_level() #18
  %41 = icmp sgt i32 %40, 3
  br i1 %41, label %42, label %51

42:                                               ; preds = %39
  %43 = getelementptr inbounds nuw i8, ptr %11, i64 212
  %44 = load i16, ptr %43, align 4
  %45 = call ptr @rpc_num2string(i16 noundef zeroext %44) #18
  %46 = getelementptr inbounds nuw i8, ptr %11, i64 140
  %47 = load i32, ptr %46, align 4
  %48 = getelementptr inbounds nuw i8, ptr %11, i64 214
  %49 = load i16, ptr %48, align 2
  %50 = zext i16 %49 to i32
  call void (i32, ptr, ...) @log_var(i32 noundef 4, ptr noundef nonnull @.str.160, ptr noundef %45, i32 noundef %47, ptr noundef nonnull %3, i32 noundef %50) #18
  br label %51

51:                                               ; preds = %42, %39, %36
  call void @slurmd_req(ptr noundef nonnull %11) #18
  br label %52

52:                                               ; preds = %22, %28, %51
  %53 = getelementptr inbounds nuw i8, ptr %11, i64 184
  %54 = load i32, ptr %53, align 8
  %55 = icmp sgt i32 %54, -1
  br i1 %55, label %56, label %61

56:                                               ; preds = %52
  %57 = call i32 @close(i32 noundef %54) #18
  %58 = icmp slt i32 %57, 0
  br i1 %58, label %59, label %61

59:                                               ; preds = %56
  %60 = call i32 (ptr, ...) @error(ptr noundef nonnull @.str.161, i32 noundef %6) #18
  br label %61

61:                                               ; preds = %59, %56, %52
  %62 = call i32 @get_log_level() #18
  %63 = icmp sgt i32 %62, 5
  br i1 %63, label %64, label %68

64:                                               ; preds = %61
  %65 = getelementptr inbounds nuw i8, ptr %11, i64 212
  %66 = load i16, ptr %65, align 4
  %67 = call ptr @rpc_num2string(i16 noundef zeroext %66) #18
  call void (i32, ptr, ...) @log_var(i32 noundef 6, ptr noundef nonnull @.str.162, ptr noundef %67) #18
  br label %68

68:                                               ; preds = %64, %61
  call void @slurm_free_msg(ptr noundef nonnull %11) #18
  store i32 -720021680, ptr %0, align 8
  call void @slurm_xfree(ptr noundef nonnull %2) #18
  call fastcc void @_decrement_thd_count()
  call void @llvm.lifetime.end.p0(i64 8, ptr nonnull %3) #18
  call void @llvm.lifetime.end.p0(i64 8, ptr nonnull %2) #18
  ret ptr null
}